; Function Attrs: mustprogress nofree norecurse nosync nounwind willreturn memory(argmem: read) uwtable
define hidden noundef i32 @_ZNK6Method8bci_fromEPh(ptr nocapture noundef nonnull readonly align 8 dereferenceable(88) %0, ptr noundef %1) local_unnamed_addr #10 align 2 {
  %3 = getelementptr inbounds i8, ptr %0, i64 40
  %.sroa.0.0.copyload.i.i = load i32, ptr %3, align 8
  %4 = and i32 %.sroa.0.0.copyload.i.i, 256
  %5 = icmp ne i32 %4, 0
  %6 = icmp eq ptr %1, null
  %or.cond = and i1 %6, %5
  %7 = getelementptr inbounds i8, ptr %0, i64 8
  %8 = load ptr, ptr %7, align 8
  %9 = getelementptr inbounds i8, ptr %8, i64 56
  %10 = ptrtoint ptr %1 to i64
  %11 = ptrtoint ptr %9 to i64
  %12 = sub i64 %10, %11
  %13 = trunc i64 %12 to i32
  %.0 = select i1 %or.cond, i32 0, i32 %13
  ret i32 %.0
}